target datalayout = "e-m:e-p270:32:32-p271:32:32-p272:64:64-i64:64-i128:128-f80:128-n8:16:32:64-S128"
target triple = "x86_64-pc-linux-gnu"

%"class.colvarmodule::quaternion" = type { double, double, double, double }
%"class.colvarmodule::rotation" = type { %"class.colvarmodule::rmatrix", [4 x [4 x double]], [4 x double], [4 x [4 x double]], [4 x [4 x double]], i8, %"class.colvarmodule::quaternion", %"class.colvarmodule::quaternion", ptr }
%"class.colvarmodule::rmatrix" = type { double, double, double, double, double, double, double, double, double }

; Function Attrs: inlinehint mustprogress nounwind uwtable
define linkonce_odr void @_ZN12colvarmodule10quaternion3setEd(ptr noundef nonnull align 8 dereferenceable(32) %0, double noundef %1) #5 comdat align 2 {
  %3 = alloca ptr, align 8
  %4 = alloca double, align 8
  store ptr %0, ptr %3, align 8, !tbaa !120
  store double %1, ptr %4, align 8, !tbaa !38
  %5 = load ptr, ptr %3, align 8
  %6 = load double, ptr %4, align 8, !tbaa !38
  %7 = getelementptr inbounds nuw %"class.colvarmodule::quaternion", ptr %5, i32 0, i32 3
  store double %6, ptr %7, align 8, !tbaa !126
  %8 = getelementptr inbounds nuw %"class.colvarmodule::quaternion", ptr %5, i32 0, i32 2
  store double %6, ptr %8, align 8, !tbaa !125
  %9 = getelementptr inbounds nuw %"class.colvarmodule::quaternion", ptr %5, i32 0, i32 1
  store double %6, ptr %9, align 8, !tbaa !124
  %10 = getelementptr inbounds nuw %"class.colvarmodule::quaternion", ptr %5, i32 0, i32 0
  store double %6, ptr %10, align 8, !tbaa !122
  ret void
}

; Function Attrs: inlinehint mustprogress uwtable
define linkonce_odr void @_ZN12colvarmodule10quaternion5resetEv(ptr noundef nonnull align 8 dereferenceable(32) %0) #3 comdat align 2 {
  %2 = alloca ptr, align 8
  store ptr %0, ptr %2, align 8, !tbaa !120
  %3 = load ptr, ptr %2, align 8
  call void @_ZN12colvarmodule10quaternion3setEd(ptr noundef nonnull align 8 dereferenceable(32) %3, double noundef 0.000000e+00)
  ret void
}

; Function Attrs: inlinehint mustprogress nounwind uwtable
define linkonce_odr void @_ZN12colvarmodule7rmatrix5resetEv(ptr noundef nonnull align 8 dereferenceable(72) %0) #5 comdat align 2 {
  %2 = alloca ptr, align 8
  store ptr %0, ptr %2, align 8, !tbaa !133
  %3 = load ptr, ptr %2, align 8
  %4 = getelementptr inbounds nuw %"class.colvarmodule::rmatrix", ptr %3, i32 0, i32 8
  store double 0.000000e+00, ptr %4, align 8, !tbaa !135
  %5 = getelementptr inbounds nuw %"class.colvarmodule::rmatrix", ptr %3, i32 0, i32 7
  store double 0.000000e+00, ptr %5, align 8, !tbaa !136
  %6 = getelementptr inbounds nuw %"class.colvarmodule::rmatrix", ptr %3, i32 0, i32 6
  store double 0.000000e+00, ptr %6, align 8, !tbaa !137
  %7 = getelementptr inbounds nuw %"class.colvarmodule::rmatrix", ptr %3, i32 0, i32 5
  store double 0.000000e+00, ptr %7, align 8, !tbaa !138
  %8 = getelementptr inbounds nuw %"class.colvarmodule::rmatrix", ptr %3, i32 0, i32 4
  store double 0.000000e+00, ptr %8, align 8, !tbaa !139
  %9 = getelementptr inbounds nuw %"class.colvarmodule::rmatrix", ptr %3, i32 0, i32 3
  store double 0.000000e+00, ptr %9, align 8, !tbaa !140
  %10 = getelementptr inbounds nuw %"class.colvarmodule::rmatrix", ptr %3, i32 0, i32 2
  store double 0.000000e+00, ptr %10, align 8, !tbaa !141
  %11 = getelementptr inbounds nuw %"class.colvarmodule::rmatrix", ptr %3, i32 0, i32 1
  store double 0.000000e+00, ptr %11, align 8, !tbaa !142
  %12 = getelementptr inbounds nuw %"class.colvarmodule::rmatrix", ptr %3, i32 0, i32 0
  store double 0.000000e+00, ptr %12, align 8, !tbaa !143
  ret void
}

; Function Attrs: inlinehint mustprogress uwtable
define linkonce_odr void @_ZN12colvarmodule10quaternionC2Ev(ptr noundef nonnull align 8 dereferenceable(32) %0) unnamed_addr #3 comdat align 2 {
  %2 = alloca ptr, align 8
  store ptr %0, ptr %2, align 8, !tbaa !120
  %3 = load ptr, ptr %2, align 8
  call void @_ZN12colvarmodule10quaternion5resetEv(ptr noundef nonnull align 8 dereferenceable(32) %3)
  ret void
}

; Function Attrs: inlinehint mustprogress uwtable
define linkonce_odr void @_ZN12colvarmodule7rmatrixC2Ev(ptr noundef nonnull align 8 dereferenceable(72) %0) unnamed_addr #3 comdat align 2 {
  %2 = alloca ptr, align 8
  store ptr %0, ptr %2, align 8, !tbaa !133
  %3 = load ptr, ptr %2, align 8
  call void @_ZN12colvarmodule7rmatrix5resetEv(ptr noundef nonnull align 8 dereferenceable(72) %3)
  ret void
}

; Function Attrs: mustprogress uwtable
define void @_ZN12colvarmodule8rotationC2Ev(ptr noundef nonnull align 8 dereferenceable(568) %0) unnamed_addr #0 align 2 {
  %2 = alloca ptr, align 8
  store ptr %0, ptr %2, align 8, !tbaa !127
  %3 = load ptr, ptr %2, align 8
  %4 = getelementptr inbounds nuw %"class.colvarmodule::rotation", ptr %3, i32 0, i32 0
  call void @_ZN12colvarmodule7rmatrixC2Ev(ptr noundef nonnull align 8 dereferenceable(72) %4)
  %5 = getelementptr inbounds nuw %"class.colvarmodule::rotation", ptr %3, i32 0, i32 6
  call void @_ZN12colvarmodule10quaternionC2Ev(ptr noundef nonnull align 8 dereferenceable(32) %5)
  %6 = getelementptr inbounds nuw %"class.colvarmodule::rotation", ptr %3, i32 0, i32 7
  call void @_ZN12colvarmodule10quaternionC2Ev(ptr noundef nonnull align 8 dereferenceable(32) %6)
  %7 = call noundef i32 @_ZN12colvarmodule8rotation4initEv(ptr noundef nonnull align 8 dereferenceable(568) %3)
  %8 = getelementptr inbounds nuw %"class.colvarmodule::rotation", ptr %3, i32 0, i32 8
  store ptr null, ptr %8, align 8, !tbaa !132
  ret void
}