; Function Attrs: mustprogress uwtable
define void @_ZN12colvarmodule8rotationC2Ev(ptr noundef nonnull writeonly align 8 captures(none) dereferenceable(568) initializes((0, 72), (488, 489), (496, 568)) %0) unnamed_addr #0 align 2 {
  tail call void @llvm.memset.p0.i64(ptr noundef nonnull align 8 dereferenceable(72) %0, i8 0, i64 72, i1 false)
  %2 = getelementptr inbounds nuw i8, ptr %0, i64 496
  tail call void @llvm.memset.p0.i64(ptr noundef nonnull align 8 dereferenceable(64) %2, i8 0, i64 64, i1 false)
  %3 = tail call noundef i32 @_ZN12colvarmodule8rotation4initEv(ptr noundef nonnull align 8 dereferenceable(568) %0)
  %4 = getelementptr inbounds nuw i8, ptr %0, i64 560
  store ptr null, ptr %4, align 8, !tbaa !65
  ret void
}